target datalayout = "e-m:e-p270:32:32-p271:32:32-p272:64:64-i64:64-i128:128-f80:128-n8:16:32:64-S128"
target triple = "x86_64-pc-linux-gnu"

%struct.block_iq1_s = type { i16, [32 x i8], [8 x i16] }

@ggml_table_f32_f16 = external global [65536 x float], align 16

; Function Attrs: inlinehint nounwind uwtable
define internal float @ggml_lookup_fp16_to_fp32(i16 noundef zeroext %0) #3 {
  %2 = alloca i16, align 2
  %3 = alloca i16, align 2
  store i16 %0, ptr %2, align 2, !tbaa !42
  call void @llvm.lifetime.start.p0(i64 2, ptr %3) #10
  call void @llvm.memcpy.p0.p0.i64(ptr align 2 %3, ptr align 2 %2, i64 2, i1 false)
  %4 = load i16, ptr %3, align 2, !tbaa !42
  %5 = zext i16 %4 to i64
  %6 = getelementptr inbounds nuw [65536 x float], ptr @ggml_table_f32_f16, i64 0, i64 %5
  %7 = load float, ptr %6, align 4, !tbaa !13
  call void @llvm.lifetime.end.p0(i64 2, ptr %3) #10
  ret float %7
}

; Function Attrs: nounwind uwtable
define void @dequantize_row_iq1_s(ptr noalias noundef %0, ptr noalias noundef %1, i64 noundef %2) #0 {
  %4 = alloca ptr, align 8
  %5 = alloca ptr, align 8
  %6 = alloca i64, align 8
  %7 = alloca i64, align 8
  %8 = alloca i32, align 4
  %9 = alloca i32, align 4
  %10 = alloca float, align 4
  %11 = alloca ptr, align 8
  %12 = alloca ptr, align 8
  %13 = alloca i32, align 4
  %14 = alloca float, align 4
  %15 = alloca float, align 4
  %16 = alloca i32, align 4
  %17 = alloca ptr, align 8
  %18 = alloca i32, align 4
  store ptr %0, ptr %4, align 8, !tbaa !8
  store ptr %1, ptr %5, align 8, !tbaa !3
  store i64 %2, ptr %6, align 8, !tbaa !9
  call void @llvm.lifetime.start.p0(i64 8, ptr %7) #10
  %19 = load i64, ptr %6, align 8, !tbaa !9
  %20 = sdiv i64 %19, 256
  store i64 %20, ptr %7, align 8, !tbaa !9
  call void @llvm.lifetime.start.p0(i64 4, ptr %8) #10
  store i32 0, ptr %8, align 4, !tbaa !11
  br label %21

21:                                               ; preds = %135, %3
  %22 = load i32, ptr %8, align 4, !tbaa !11
  %23 = sext i32 %22 to i64
  %24 = load i64, ptr %7, align 8, !tbaa !9
  %25 = icmp slt i64 %23, %24
  br i1 %25, label %27, label %26

26:                                               ; preds = %21
  store i32 2, ptr %9, align 4
  call void @llvm.lifetime.end.p0(i64 4, ptr %8) #10
  br label %138

27:                                               ; preds = %21
  call void @llvm.lifetime.start.p0(i64 4, ptr %10) #10
  %28 = load ptr, ptr %4, align 8, !tbaa !8
  %29 = load i32, ptr %8, align 4, !tbaa !11
  %30 = sext i32 %29 to i64
  %31 = getelementptr inbounds %struct.block_iq1_s, ptr %28, i64 %30
  %32 = getelementptr inbounds nuw %struct.block_iq1_s, ptr %31, i32 0, i32 0
  %33 = load i16, ptr %32, align 2, !tbaa !282
  %34 = call float @ggml_lookup_fp16_to_fp32(i16 noundef zeroext %33)
  store float %34, ptr %10, align 4, !tbaa !13
  call void @llvm.lifetime.start.p0(i64 8, ptr %11) #10
  %35 = load ptr, ptr %4, align 8, !tbaa !8
  %36 = load i32, ptr %8, align 4, !tbaa !11
  %37 = sext i32 %36 to i64
  %38 = getelementptr inbounds %struct.block_iq1_s, ptr %35, i64 %37
  %39 = getelementptr inbounds nuw %struct.block_iq1_s, ptr %38, i32 0, i32 1
  %40 = getelementptr inbounds [32 x i8], ptr %39, i64 0, i64 0
  store ptr %40, ptr %11, align 8, !tbaa !61
  call void @llvm.lifetime.start.p0(i64 8, ptr %12) #10
  %41 = load ptr, ptr %4, align 8, !tbaa !8
  %42 = load i32, ptr %8, align 4, !tbaa !11
  %43 = sext i32 %42 to i64
  %44 = getelementptr inbounds %struct.block_iq1_s, ptr %41, i64 %43
  %45 = getelementptr inbounds nuw %struct.block_iq1_s, ptr %44, i32 0, i32 2
  %46 = getelementptr inbounds [8 x i16], ptr %45, i64 0, i64 0
  store ptr %46, ptr %12, align 8, !tbaa !284
  call void @llvm.lifetime.start.p0(i64 4, ptr %13) #10
  store i32 0, ptr %13, align 4, !tbaa !11
  br label %47

47:                                               ; preds = %131, %27
  %48 = load i32, ptr %13, align 4, !tbaa !11
  %49 = icmp slt i32 %48, 8
  br i1 %49, label %51, label %50

50:                                               ; preds = %47
  store i32 5, ptr %9, align 4
  call void @llvm.lifetime.end.p0(i64 4, ptr %13) #10
  br label %134

51:                                               ; preds = %47
  call void @llvm.lifetime.start.p0(i64 4, ptr %14) #10
  %52 = load float, ptr %10, align 4, !tbaa !13
  %53 = load ptr, ptr %12, align 8, !tbaa !284
  %54 = load i32, ptr %13, align 4, !tbaa !11
  %55 = sext i32 %54 to i64
  %56 = getelementptr inbounds i16, ptr %53, i64 %55
  %57 = load i16, ptr %56, align 2, !tbaa !42
  %58 = zext i16 %57 to i32
  %59 = ashr i32 %58, 12
  %60 = and i32 %59, 7
  %61 = mul nsw i32 2, %60
  %62 = add nsw i32 %61, 1
  %63 = sitofp i32 %62 to float
  %64 = fmul float %52, %63
  store float %64, ptr %14, align 4, !tbaa !13
  call void @llvm.lifetime.start.p0(i64 4, ptr %15) #10
  %65 = load ptr, ptr %12, align 8, !tbaa !284
  %66 = load i32, ptr %13, align 4, !tbaa !11
  %67 = sext i32 %66 to i64
  %68 = getelementptr inbounds i16, ptr %65, i64 %67
  %69 = load i16, ptr %68, align 2, !tbaa !42
  %70 = zext i16 %69 to i32
  %71 = and i32 %70, 32768
  %72 = icmp ne i32 %71, 0
  %73 = select i1 %72, float -1.250000e-01, float 1.250000e-01
  store float %73, ptr %15, align 4, !tbaa !13
  call void @llvm.lifetime.start.p0(i64 4, ptr %16) #10
  store i32 0, ptr %16, align 4, !tbaa !11
  br label %74

74:                                               ; preds = %125, %51
  %75 = load i32, ptr %16, align 4, !tbaa !11
  %76 = icmp slt i32 %75, 4
  br i1 %76, label %78, label %77

77:                                               ; preds = %74
  store i32 8, ptr %9, align 4
  call void @llvm.lifetime.end.p0(i64 4, ptr %16) #10
  br label %128

78:                                               ; preds = %74
  call void @llvm.lifetime.start.p0(i64 8, ptr %17) #10
  %79 = load ptr, ptr %11, align 8, !tbaa !61
  %80 = load i32, ptr %16, align 4, !tbaa !11
  %81 = sext i32 %80 to i64
  %82 = getelementptr inbounds i8, ptr %79, i64 %81
  %83 = load i8, ptr %82, align 1, !tbaa !20
  %84 = zext i8 %83 to i32
  %85 = load ptr, ptr %12, align 8, !tbaa !284
  %86 = load i32, ptr %13, align 4, !tbaa !11
  %87 = sext i32 %86 to i64
  %88 = getelementptr inbounds i16, ptr %85, i64 %87
  %89 = load i16, ptr %88, align 2, !tbaa !42
  %90 = zext i16 %89 to i32
  %91 = load i32, ptr %16, align 4, !tbaa !11
  %92 = mul nsw i32 3, %91
  %93 = ashr i32 %90, %92
  %94 = and i32 %93, 7
  %95 = shl i32 %94, 8
  %96 = or i32 %84, %95
  %97 = sext i32 %96 to i64
  %98 = getelementptr inbounds i64, ptr @iq1s_grid, i64 %97
  store ptr %98, ptr %17, align 8, !tbaa !61
  call void @llvm.lifetime.start.p0(i64 4, ptr %18) #10
  store i32 0, ptr %18, align 4, !tbaa !11
  br label %99

99:                                               ; preds = %119, %78
  %100 = load i32, ptr %18, align 4, !tbaa !11
  %101 = icmp slt i32 %100, 8
  br i1 %101, label %103, label %102

102:                                              ; preds = %99
  store i32 11, ptr %9, align 4
  call void @llvm.lifetime.end.p0(i64 4, ptr %18) #10
  br label %122

103:                                              ; preds = %99
  %104 = load float, ptr %14, align 4, !tbaa !13
  %105 = load ptr, ptr %17, align 8, !tbaa !61
  %106 = load i32, ptr %18, align 4, !tbaa !11
  %107 = sext i32 %106 to i64
  %108 = getelementptr inbounds i8, ptr %105, i64 %107
  %109 = load i8, ptr %108, align 1, !tbaa !20
  %110 = sext i8 %109 to i32
  %111 = sitofp i32 %110 to float
  %112 = load float, ptr %15, align 4, !tbaa !13
  %113 = fadd float %111, %112
  %114 = fmul float %104, %113
  %115 = load ptr, ptr %5, align 8, !tbaa !3
  %116 = load i32, ptr %18, align 4, !tbaa !11
  %117 = sext i32 %116 to i64
  %118 = getelementptr inbounds float, ptr %115, i64 %117
  store float %114, ptr %118, align 4, !tbaa !13
  br label %119

119:                                              ; preds = %103
  %120 = load i32, ptr %18, align 4, !tbaa !11
  %121 = add nsw i32 %120, 1
  store i32 %121, ptr %18, align 4, !tbaa !11
  br label %99, !llvm.loop !286

122:                                              ; preds = %102
  %123 = load ptr, ptr %5, align 8, !tbaa !3
  %124 = getelementptr inbounds float, ptr %123, i64 8
  store ptr %124, ptr %5, align 8, !tbaa !3
  call void @llvm.lifetime.end.p0(i64 8, ptr %17) #10
  br label %125

125:                                              ; preds = %122
  %126 = load i32, ptr %16, align 4, !tbaa !11
  %127 = add nsw i32 %126, 1
  store i32 %127, ptr %16, align 4, !tbaa !11
  br label %74, !llvm.loop !287

128:                                              ; preds = %77
  %129 = load ptr, ptr %11, align 8, !tbaa !61
  %130 = getelementptr inbounds i8, ptr %129, i64 4
  store ptr %130, ptr %11, align 8, !tbaa !61
  call void @llvm.lifetime.end.p0(i64 4, ptr %15) #10
  call void @llvm.lifetime.end.p0(i64 4, ptr %14) #10
  br label %131

131:                                              ; preds = %128
  %132 = load i32, ptr %13, align 4, !tbaa !11
  %133 = add nsw i32 %132, 1
  store i32 %133, ptr %13, align 4, !tbaa !11
  br label %47, !llvm.loop !288

134:                                              ; preds = %50
  call void @llvm.lifetime.end.p0(i64 8, ptr %12) #10
  call void @llvm.lifetime.end.p0(i64 8, ptr %11) #10
  call void @llvm.lifetime.end.p0(i64 4, ptr %10) #10
  br label %135

135:                                              ; preds = %134
  %136 = load i32, ptr %8, align 4, !tbaa !11
  %137 = add nsw i32 %136, 1
  store i32 %137, ptr %8, align 4, !tbaa !11
  br label %21, !llvm.loop !289

138:                                              ; preds = %26
  call void @llvm.lifetime.end.p0(i64 8, ptr %7) #10
  ret void
}