; Function Attrs: nofree norecurse nosync nounwind memory(read, argmem: readwrite, inaccessiblemem: none) uwtable
define void @dequantize_row_iq1_s(ptr noalias noundef readonly captures(none) %0, ptr noalias noundef writeonly captures(none) %1, i64 noundef %2) local_unnamed_addr #4 {
  %4 = sdiv i64 %2, 256
  %5 = icmp sgt i64 %2, 255
  br i1 %5, label %.lr.ph, label %._crit_edge

._crit_edge:                                      ; preds = %13, %3
  ret void

.lr.ph:                                           ; preds = %3, %13
  %indvars.iv56 = phi i64 [ %indvars.iv.next57, %13 ], [ 0, %3 ]
  %.03346 = phi ptr [ %39, %13 ], [ %1, %3 ]
  %6 = getelementptr inbounds nuw %struct.block_iq1_s, ptr %0, i64 %indvars.iv56
  %7 = load i16, ptr %6, align 2, !tbaa !656
  %8 = zext i16 %7 to i64
  %9 = getelementptr inbounds nuw [65536 x float], ptr @ggml_table_f32_f16, i64 0, i64 %8
  %10 = load float, ptr %9, align 4, !tbaa !8
  %11 = getelementptr inbounds nuw i8, ptr %6, i64 2
  %12 = getelementptr inbounds nuw i8, ptr %6, i64 34
  br label %14

13:                                               ; preds = %24
  %indvars.iv.next57 = add nuw nsw i64 %indvars.iv56, 1
  %exitcond59.not = icmp eq i64 %indvars.iv.next57, %4
  br i1 %exitcond59.not, label %._crit_edge, label %.lr.ph, !llvm.loop !658

14:                                               ; preds = %.lr.ph, %24
  %indvars.iv52 = phi i64 [ 0, %.lr.ph ], [ %indvars.iv.next53, %24 ]
  %.144 = phi ptr [ %.03346, %.lr.ph ], [ %39, %24 ]
  %.03742 = phi ptr [ %11, %.lr.ph ], [ %25, %24 ]
  %15 = getelementptr inbounds nuw i16, ptr %12, i64 %indvars.iv52
  %16 = load i16, ptr %15, align 2, !tbaa !635
  %17 = lshr i16 %16, 11
  %18 = and i16 %17, 14
  %19 = or disjoint i16 %18, 1
  %20 = uitofp nneg i16 %19 to float
  %21 = fmul float %10, %20
  %.not = icmp sgt i16 %16, -1
  %22 = select i1 %.not, float 1.250000e-01, float -1.250000e-01
  %23 = zext i16 %16 to i32
  br label %26

24:                                               ; preds = %38
  %25 = getelementptr inbounds nuw i8, ptr %.03742, i64 4
  %indvars.iv.next53 = add nuw nsw i64 %indvars.iv52, 1
  %exitcond55.not = icmp eq i64 %indvars.iv.next53, 8
  br i1 %exitcond55.not, label %13, label %14, !llvm.loop !659

26:                                               ; preds = %14, %38
  %indvars.iv48 = phi i64 [ 0, %14 ], [ %indvars.iv.next49, %38 ]
  %.241 = phi ptr [ %.144, %14 ], [ %39, %38 ]
  %27 = getelementptr inbounds nuw i8, ptr %.03742, i64 %indvars.iv48
  %28 = load i8, ptr %27, align 1, !tbaa !13
  %29 = zext i8 %28 to i32
  %30 = trunc i64 %indvars.iv48 to i32
  %31 = mul i32 %30, 3
  %32 = lshr i32 %23, %31
  %33 = shl nuw nsw i32 %32, 8
  %34 = and i32 %33, 1792
  %35 = or disjoint i32 %34, %29
  %36 = zext nneg i32 %35 to i64
  %37 = getelementptr inbounds nuw i64, ptr @iq1s_grid, i64 %36
  br label %40

38:                                               ; preds = %40
  %39 = getelementptr inbounds nuw i8, ptr %.241, i64 32
  %indvars.iv.next49 = add nuw nsw i64 %indvars.iv48, 1
  %exitcond51.not = icmp eq i64 %indvars.iv.next49, 4
  br i1 %exitcond51.not, label %24, label %26, !llvm.loop !660

40:                                               ; preds = %26, %40
  %indvars.iv = phi i64 [ 0, %26 ], [ %indvars.iv.next, %40 ]
  %41 = getelementptr inbounds nuw i8, ptr %37, i64 %indvars.iv
  %42 = load i8, ptr %41, align 1, !tbaa !13
  %43 = sitofp i8 %42 to float
  %44 = fadd float %22, %43
  %45 = fmul float %21, %44
  %46 = getelementptr inbounds nuw float, ptr %.241, i64 %indvars.iv
  store float %45, ptr %46, align 4, !tbaa !8
  %indvars.iv.next = add nuw nsw i64 %indvars.iv, 1
  %exitcond.not = icmp eq i64 %indvars.iv.next, 8
  br i1 %exitcond.not, label %38, label %40, !llvm.loop !661
}